target datalayout = "e-m:e-p270:32:32-p271:32:32-p272:64:64-i64:64-i128:128-f80:128-n8:16:32:64-S128"
target triple = "x86_64-pc-linux-gnu"

%struct.hashmap_entry = type { ptr, i32 }
%struct.packed_git = type { %struct.hashmap_entry, ptr, %struct.list_head, ptr, i64, ptr, i64, i32, i64, %struct.oidset, i32, i64, i32, i32, i8, [32 x i8], ptr, ptr, ptr, i64, ptr, i64, ptr, [0 x i8] }
%struct.list_head = type { ptr, ptr }
%struct.oidset = type { %struct.kh_oid_set }
%struct.kh_oid_set = type { i32, i32, i32, i32, ptr, ptr, ptr }

@the_repository = external global ptr, align 8

; Function Attrs: nounwind uwtable
define dso_local void @http_install_packfile(ptr noundef %0, ptr noundef %1) #0 {
  %3 = alloca ptr, align 8
  %4 = alloca ptr, align 8
  %5 = alloca ptr, align 8
  store ptr %0, ptr %3, align 8, !tbaa !184
  store ptr %1, ptr %4, align 8, !tbaa !180
  call void @llvm.lifetime.start.p0(i64 8, ptr %5) #11
  %6 = load ptr, ptr %4, align 8, !tbaa !180
  store ptr %6, ptr %5, align 8, !tbaa !180
  br label %7

7:                                                ; preds = %12, %2
  %8 = load ptr, ptr %5, align 8, !tbaa !180
  %9 = load ptr, ptr %8, align 8, !tbaa !184
  %10 = load ptr, ptr %3, align 8, !tbaa !184
  %11 = icmp ne ptr %9, %10
  br i1 %11, label %12, label %16

12:                                               ; preds = %7
  %13 = load ptr, ptr %5, align 8, !tbaa !180
  %14 = load ptr, ptr %13, align 8, !tbaa !184
  %15 = getelementptr inbounds nuw %struct.packed_git, ptr %14, i32 0, i32 1
  store ptr %15, ptr %5, align 8, !tbaa !180
  br label %7, !llvm.loop !199

16:                                               ; preds = %7
  %17 = load ptr, ptr %5, align 8, !tbaa !180
  %18 = load ptr, ptr %17, align 8, !tbaa !184
  %19 = getelementptr inbounds nuw %struct.packed_git, ptr %18, i32 0, i32 1
  %20 = load ptr, ptr %19, align 8, !tbaa !184
  %21 = load ptr, ptr %5, align 8, !tbaa !180
  store ptr %20, ptr %21, align 8, !tbaa !184
  %22 = load ptr, ptr @the_repository, align 8, !tbaa !66
  %23 = load ptr, ptr %3, align 8, !tbaa !184
  call void @install_packed_git(ptr noundef %22, ptr noundef %23)
  call void @llvm.lifetime.end.p0(i64 8, ptr %5) #11
  ret void
}