; Function Attrs: nounwind uwtable
define dso_local void @http_install_packfile(ptr noundef %0, ptr noundef captures(none) %1) local_unnamed_addr #3 {
  br label %3

3:                                                ; preds = %3, %2
  %.0 = phi ptr [ %1, %2 ], [ %5, %3 ]
  %4 = load ptr, ptr %.0, align 8, !tbaa !161
  %.not = icmp eq ptr %4, %0
  %5 = getelementptr inbounds nuw i8, ptr %4, i64 16
  br i1 %.not, label %6, label %3, !llvm.loop !175

6:                                                ; preds = %3
  %7 = load ptr, ptr %5, align 8, !tbaa !161
  store ptr %7, ptr %.0, align 8, !tbaa !161
  %8 = load ptr, ptr @the_repository, align 8, !tbaa !39
  tail call void @install_packed_git(ptr noundef %8, ptr noundef %0) #22
  ret void
}